; Function Attrs: mustprogress uwtable
define hidden noundef i32 @_ZN12mpfx_manager17prev_power_of_twoERK4mpfx(ptr noundef nonnull readonly align 8 captures(none) dereferenceable(85) %0, ptr noundef nonnull readonly align 4 captures(none) dereferenceable(4) %1) local_unnamed_addr #3 align 2 {
  %3 = load i32, ptr %1, align 4
  %4 = and i32 %3, 1
  %5 = icmp eq i32 %4, 0
  %6 = icmp ugt i32 %3, 1
  %7 = and i1 %6, %5
  br i1 %7, label %8, label %26

8:                                                ; preds = %2
  %9 = load i32, ptr %0, align 8, !tbaa !13
  %10 = shl i32 %9, 5
  %11 = getelementptr inbounds nuw i8, ptr %0, i64 16
  %12 = load ptr, ptr %11, align 8, !tbaa !3
  %13 = lshr exact i32 %3, 1
  %14 = getelementptr inbounds nuw i8, ptr %0, i64 8
  %15 = load i32, ptr %14, align 8, !tbaa !19
  %16 = mul i32 %15, %13
  %17 = zext i32 %16 to i64
  %18 = getelementptr inbounds nuw i32, ptr %12, i64 %17
  %19 = getelementptr inbounds nuw i8, ptr %0, i64 4
  %20 = load i32, ptr %19, align 4, !tbaa !18
  %21 = zext i32 %20 to i64
  %22 = getelementptr inbounds nuw i32, ptr %18, i64 %21
  %23 = tail call noundef i32 @_Z3nlzjPKj(i32 noundef %9, ptr noundef %22)
  %24 = xor i32 %23, -1
  %25 = add i32 %10, %24
  br label %26

26:                                               ; preds = %2, %8
  %.0 = phi i32 [ %25, %8 ], [ 0, %2 ]
  ret i32 %.0
}